target datalayout = "e-m:e-p270:32:32-p271:32:32-p272:64:64-i64:64-i128:128-f80:128-n8:16:32:64-S128"
target triple = "x86_64-unknown-linux-gnu"

%"class.std::shared_ptr" = type { %"class.std::__shared_ptr" }
%"class.std::__shared_ptr" = type { ptr, %"class.std::__shared_count" }
%"class.std::__shared_count" = type { ptr }
%"class.std::_Function_base" = type { %"union.std::_Any_data", ptr }
%"union.std::_Any_data" = type { %"union.std::_Nocopy_types" }
%"union.std::_Nocopy_types" = type { { i64, i64 } }
%"class.rocksdb::RangeTreeLockManager" = type { %"class.rocksdb::RangeLockManagerBase", %"class.rocksdb::RangeLockManagerHandle", %"class.toku::locktree_manager", %"class.std::function", %"class.std::shared_ptr", %"class.std::unordered_map", %"class.rocksdb::InstrumentedMutex", %"class.std::unique_ptr", %"class.rocksdb::DeadlockInfoBufferTempl" }
%"class.rocksdb::RangeLockManagerBase" = type { %"class.rocksdb::LockManager" }
%"class.rocksdb::LockManager" = type { ptr }
%"class.rocksdb::RangeLockManagerHandle" = type { %"class.rocksdb::LockManagerHandle" }
%"class.rocksdb::LockManagerHandle" = type { ptr }
%"class.toku::locktree_manager" = type { i64, i64, %"struct.toku::lt_counters", ptr, ptr, ptr, ptr, %"class.toku::omt", %"class.std::shared_ptr", %struct.toku_mutex_t, %struct.toku_mutex_t, i64, i64, i64, i64, i64, i64, i64, %"class.toku::locktree_manager::locktree_escalator" }
%"struct.toku::lt_counters" = type { i64, i64, i64, i64, i64 }
%"class.toku::omt" = type { i8, i32, %union.anon }
%union.anon = type { %"struct.toku::omt<toku::locktree *>::omt_array" }
%"struct.toku::omt<toku::locktree *>::omt_array" = type { i32, i32, ptr }
%struct.toku_mutex_t = type { %union.pthread_mutex_t, ptr }
%union.pthread_mutex_t = type { %struct.__pthread_mutex_s }
%struct.__pthread_mutex_s = type { i32, i32, i32, i32, i32, i16, i16, %struct.__pthread_internal_list }
%struct.__pthread_internal_list = type { ptr, ptr }
%"class.toku::locktree_manager::locktree_escalator" = type <{ %struct.toku_mutex_t, %struct.toku_cond_t, i8, [7 x i8] }>
%struct.toku_cond_t = type { %union.pthread_cond_t, ptr }
%union.pthread_cond_t = type { %struct.__pthread_cond_s }
%struct.__pthread_cond_s = type { %union.__atomic_wide_counter, %union.__atomic_wide_counter, [2 x i32], [2 x i32], i32, i32, [2 x i32] }
%union.__atomic_wide_counter = type { i64 }
%"class.std::function" = type { %"class.std::_Function_base", ptr }
%"class.std::unordered_map" = type { %"class.std::_Hashtable" }
%"class.std::_Hashtable" = type { ptr, i64, %"struct.std::__detail::_Hash_node_base", i64, %"struct.std::__detail::_Prime_rehash_policy", ptr }
%"struct.std::__detail::_Hash_node_base" = type { ptr }
%"struct.std::__detail::_Prime_rehash_policy" = type { float, i64 }
%"class.rocksdb::InstrumentedMutex" = type <{ %"class.rocksdb::port::Mutex", ptr, ptr, i32, [4 x i8] }>
%"class.rocksdb::port::Mutex" = type { %union.pthread_mutex_t }
%"class.std::unique_ptr" = type { %"struct.std::__uniq_ptr_data" }
%"struct.std::__uniq_ptr_data" = type { %"class.std::__uniq_ptr_impl" }
%"class.std::__uniq_ptr_impl" = type { %"class.std::tuple" }
%"class.std::tuple" = type { %"struct.std::_Tuple_impl" }
%"struct.std::_Tuple_impl" = type { %"struct.std::_Head_base.7" }
%"struct.std::_Head_base.7" = type { ptr }
%"class.rocksdb::DeadlockInfoBufferTempl" = type { %"class.std::vector.8", i32, %"class.std::mutex" }
%"class.std::vector.8" = type { %"struct.std::_Vector_base.9" }
%"struct.std::_Vector_base.9" = type { %"struct.std::_Vector_base<rocksdb::RangeDeadlockPath, std::allocator<rocksdb::RangeDeadlockPath>>::_Vector_impl" }
%"struct.std::_Vector_base<rocksdb::RangeDeadlockPath, std::allocator<rocksdb::RangeDeadlockPath>>::_Vector_impl" = type { %"struct.std::_Vector_base<rocksdb::RangeDeadlockPath, std::allocator<rocksdb::RangeDeadlockPath>>::_Vector_impl_data" }
%"struct.std::_Vector_base<rocksdb::RangeDeadlockPath, std::allocator<rocksdb::RangeDeadlockPath>>::_Vector_impl_data" = type { ptr, ptr, ptr }
%"class.std::mutex" = type { %"class.std::__mutex_base" }
%"class.std::__mutex_base" = type { %union.pthread_mutex_t }
%"class.rocksdb::RangeLockManagerHandle::Counters" = type { i64, i64, i64 }
%class.LTM_STATUS_S = type <{ [19 x %struct.__toku_engine_status_row], i8, [7 x i8] }>
%struct.__toku_engine_status_row = type { ptr, ptr, ptr, i32, i32, %union.anon.137 }
%union.anon.137 = type { double, [24 x i8] }

@.str = private unnamed_addr constant [21 x i8] c"LTM_ESCALATION_COUNT\00", align 1
@.str.1 = private unnamed_addr constant [15 x i8] c"LTM_WAIT_COUNT\00", align 1
@.str.2 = private unnamed_addr constant [17 x i8] c"LTM_SIZE_CURRENT\00", align 1

; Function Attrs: mustprogress nounwind uwtable
define linkonce_odr void @_ZN12LTM_STATUS_SC2Ev(ptr noundef nonnull align 8 dereferenceable(1217) %this) unnamed_addr #1 comdat align 2 {
entry:
  %this.addr = alloca ptr, align 8
  store ptr %this, ptr %this.addr, align 8
  %this1 = load ptr, ptr %this.addr, align 8
  %m_initialized = getelementptr inbounds %class.LTM_STATUS_S, ptr %this1, i32 0, i32 1
  store i8 0, ptr %m_initialized, align 8
  ret void
}

; Function Attrs: mustprogress uwtable
define void @_ZN7rocksdb20RangeTreeLockManager9GetStatusEv(ptr noalias sret(%"class.rocksdb::RangeLockManagerHandle::Counters") align 8 %agg.result, ptr noundef nonnull align 8 dereferenceable(656) %this) unnamed_addr #0 align 2 {
entry:
  %this.addr = alloca ptr, align 8
  %ltm_status_test = alloca %class.LTM_STATUS_S, align 8
  %i = alloca i32, align 4
  %status = alloca ptr, align 8
  store ptr %this, ptr %this.addr, align 8
  %this1 = load ptr, ptr %this.addr, align 8
  call void @_ZN12LTM_STATUS_SC2Ev(ptr noundef nonnull align 8 dereferenceable(1217) %ltm_status_test) #3
  %ltm_ = getelementptr inbounds %"class.rocksdb::RangeTreeLockManager", ptr %this1, i32 0, i32 2
  call void @_ZN4toku16locktree_manager10get_statusEP12LTM_STATUS_S(ptr noundef nonnull align 8 dereferenceable(392) %ltm_, ptr noundef %ltm_status_test)
  store i32 0, ptr %i, align 4
  br label %for.cond

for.cond:                                         ; preds = %for.inc, %entry
  %0 = load i32, ptr %i, align 4
  %cmp = icmp slt i32 %0, 19
  br i1 %cmp, label %for.body, label %for.end

for.body:                                         ; preds = %for.cond
  %status2 = getelementptr inbounds %class.LTM_STATUS_S, ptr %ltm_status_test, i32 0, i32 0
  %1 = load i32, ptr %i, align 4
  %idxprom = sext i32 %1 to i64
  %arrayidx = getelementptr inbounds [19 x %struct.__toku_engine_status_row], ptr %status2, i64 0, i64 %idxprom
  store ptr %arrayidx, ptr %status, align 8
  %2 = load ptr, ptr %status, align 8
  %keyname = getelementptr inbounds %struct.__toku_engine_status_row, ptr %2, i32 0, i32 0
  %3 = load ptr, ptr %keyname, align 8
  %call = call i32 @strcmp(ptr noundef %3, ptr noundef @.str) #22
  %cmp3 = icmp eq i32 %call, 0
  br i1 %cmp3, label %if.then, label %if.end

if.then:                                          ; preds = %for.body
  %4 = load ptr, ptr %status, align 8
  %value = getelementptr inbounds %struct.__toku_engine_status_row, ptr %4, i32 0, i32 5
  %5 = load i64, ptr %value, align 8
  %escalation_count = getelementptr inbounds %"class.rocksdb::RangeLockManagerHandle::Counters", ptr %agg.result, i32 0, i32 0
  store i64 %5, ptr %escalation_count, align 8
  br label %for.inc

if.end:                                           ; preds = %for.body
  %6 = load ptr, ptr %status, align 8
  %keyname4 = getelementptr inbounds %struct.__toku_engine_status_row, ptr %6, i32 0, i32 0
  %7 = load ptr, ptr %keyname4, align 8
  %call5 = call i32 @strcmp(ptr noundef %7, ptr noundef @.str.1) #22
  %cmp6 = icmp eq i32 %call5, 0
  br i1 %cmp6, label %if.then7, label %if.end9

if.then7:                                         ; preds = %if.end
  %8 = load ptr, ptr %status, align 8
  %value8 = getelementptr inbounds %struct.__toku_engine_status_row, ptr %8, i32 0, i32 5
  %9 = load i64, ptr %value8, align 8
  %lock_wait_count = getelementptr inbounds %"class.rocksdb::RangeLockManagerHandle::Counters", ptr %agg.result, i32 0, i32 1
  store i64 %9, ptr %lock_wait_count, align 8
  br label %for.inc

if.end9:                                          ; preds = %if.end
  %10 = load ptr, ptr %status, align 8
  %keyname10 = getelementptr inbounds %struct.__toku_engine_status_row, ptr %10, i32 0, i32 0
  %11 = load ptr, ptr %keyname10, align 8
  %call11 = call i32 @strcmp(ptr noundef %11, ptr noundef @.str.2) #22
  %cmp12 = icmp eq i32 %call11, 0
  br i1 %cmp12, label %if.then13, label %if.end15

if.then13:                                        ; preds = %if.end9
  %12 = load ptr, ptr %status, align 8
  %value14 = getelementptr inbounds %struct.__toku_engine_status_row, ptr %12, i32 0, i32 5
  %13 = load i64, ptr %value14, align 8
  %current_lock_memory = getelementptr inbounds %"class.rocksdb::RangeLockManagerHandle::Counters", ptr %agg.result, i32 0, i32 2
  store i64 %13, ptr %current_lock_memory, align 8
  br label %if.end15

if.end15:                                         ; preds = %if.then13, %if.end9
  br label %for.inc

for.inc:                                          ; preds = %if.end15, %if.then7, %if.then
  %14 = load i32, ptr %i, align 4
  %inc = add nsw i32 %14, 1
  store i32 %inc, ptr %i, align 4
  br label %for.cond, !llvm.loop !7

for.end:                                          ; preds = %for.cond
  ret void
}