; Function Attrs: mustprogress uwtable
define void @_ZN7rocksdb20RangeTreeLockManager9GetStatusEv(ptr noalias nocapture writeonly sret(%"class.rocksdb::RangeLockManagerHandle::Counters") align 8 %agg.result, ptr noundef nonnull align 8 dereferenceable(656) %this) unnamed_addr #2 align 2 {
entry:
  %ltm_status_test = alloca %class.LTM_STATUS_S, align 8
  %m_initialized.i = getelementptr inbounds i8, ptr %ltm_status_test, i64 1216
  store i8 0, ptr %m_initialized.i, align 8
  %ltm_ = getelementptr inbounds i8, ptr %this, i64 16
  call void @_ZN4toku16locktree_manager10get_statusEP12LTM_STATUS_S(ptr noundef nonnull align 8 dereferenceable(392) %ltm_, ptr noundef nonnull %ltm_status_test)
  %current_lock_memory = getelementptr inbounds i8, ptr %agg.result, i64 16
  %lock_wait_count = getelementptr inbounds i8, ptr %agg.result, i64 8
  br label %for.body

for.body:                                         ; preds = %entry, %for.inc
  %indvars.iv = phi i64 [ 0, %entry ], [ %indvars.iv.next, %for.inc ]
  %arrayidx = getelementptr inbounds [19 x %struct.__toku_engine_status_row], ptr %ltm_status_test, i64 0, i64 %indvars.iv
  %0 = load ptr, ptr %arrayidx, align 8
  %call = call i32 @strcmp(ptr noundef nonnull dereferenceable(1) %0, ptr noundef nonnull dereferenceable(21) @.str) #27
  %cmp3 = icmp eq i32 %call, 0
  br i1 %cmp3, label %for.inc.sink.split, label %if.end

if.end:                                           ; preds = %for.body
  %call5 = call i32 @strcmp(ptr noundef nonnull dereferenceable(1) %0, ptr noundef nonnull dereferenceable(15) @.str.1) #27
  %cmp6 = icmp eq i32 %call5, 0
  br i1 %cmp6, label %for.inc.sink.split, label %if.end9

if.end9:                                          ; preds = %if.end
  %call11 = call i32 @strcmp(ptr noundef nonnull dereferenceable(1) %0, ptr noundef nonnull dereferenceable(17) @.str.2) #27
  %cmp12 = icmp eq i32 %call11, 0
  br i1 %cmp12, label %for.inc.sink.split, label %for.inc

for.inc.sink.split:                               ; preds = %if.end9, %if.end, %for.body
  %current_lock_memory.sink = phi ptr [ %agg.result, %for.body ], [ %lock_wait_count, %if.end ], [ %current_lock_memory, %if.end9 ]
  %value14 = getelementptr inbounds i8, ptr %arrayidx, i64 32
  %1 = load i64, ptr %value14, align 8
  store i64 %1, ptr %current_lock_memory.sink, align 8
  br label %for.inc

for.inc:                                          ; preds = %for.inc.sink.split, %if.end9
  %indvars.iv.next = add nuw nsw i64 %indvars.iv, 1
  %exitcond.not = icmp eq i64 %indvars.iv.next, 19
  br i1 %exitcond.not, label %for.end, label %for.body, !llvm.loop !41

for.end:                                          ; preds = %for.inc
  ret void
}